target datalayout = "e-m:e-p270:32:32-p271:32:32-p272:64:64-i64:64-i128:128-f80:128-n8:16:32:64-S128"
target triple = "x86_64-pc-linux-gnu"

%struct.jpeg_decompress_struct = type { ptr, ptr, ptr, ptr, i32, i32, ptr, i32, i32, i32, i32, i32, i32, i32, double, i32, i32, i32, i32, i32, i32, i32, i32, i32, i32, i32, i32, i32, i32, i32, i32, i32, i32, ptr, i32, i32, i32, i32, i32, ptr, [4 x ptr], [4 x ptr], [4 x ptr], i32, ptr, i32, i32, [16 x i8], [16 x i8], [16 x i8], i32, i32, i8, i8, i8, i16, i16, i32, i8, i32, ptr, i32, i32, i32, i32, ptr, i32, [4 x ptr], i32, i32, i32, [10 x i32], i32, i32, i32, i32, i32, ptr, ptr, ptr, ptr, ptr, ptr, ptr, ptr, ptr, ptr, ptr }
%struct.lhuff_entropy_decoder = type { %struct.jpeg_entropy_decoder, %struct.bitread_perm_state, [4 x ptr], [10 x ptr], [10 x ptr], i32, [10 x %struct.lhd_output_ptr_info], [10 x i32] }
%struct.jpeg_entropy_decoder = type { ptr, ptr, ptr, ptr, i32 }
%struct.bitread_perm_state = type { i64, i32 }
%struct.lhd_output_ptr_info = type { i32, i32, i32 }
%struct.jpeg_marker_reader = type { ptr, ptr, ptr, i32, i32, i32, i32 }

; Function Attrs: nounwind uwtable
define internal i32 @process_restart(ptr noundef %0) #0 {
  %2 = alloca i32, align 4
  %3 = alloca ptr, align 8
  %4 = alloca ptr, align 8
  %5 = alloca i32, align 4
  store ptr %0, ptr %3, align 8, !tbaa !3
  call void @llvm.lifetime.start.p0(i64 8, ptr %4) #3
  %6 = load ptr, ptr %3, align 8, !tbaa !3
  %7 = getelementptr inbounds nuw %struct.jpeg_decompress_struct, ptr %6, i32 0, i32 83
  %8 = load ptr, ptr %7, align 8, !tbaa !36
  store ptr %8, ptr %4, align 8, !tbaa !35
  %9 = load ptr, ptr %4, align 8, !tbaa !35
  %10 = getelementptr inbounds nuw %struct.lhuff_entropy_decoder, ptr %9, i32 0, i32 1
  %11 = getelementptr inbounds nuw %struct.bitread_perm_state, ptr %10, i32 0, i32 1
  %12 = load i32, ptr %11, align 8, !tbaa !67
  %13 = sdiv i32 %12, 8
  %14 = load ptr, ptr %3, align 8, !tbaa !3
  %15 = getelementptr inbounds nuw %struct.jpeg_decompress_struct, ptr %14, i32 0, i32 82
  %16 = load ptr, ptr %15, align 8, !tbaa !93
  %17 = getelementptr inbounds nuw %struct.jpeg_marker_reader, ptr %16, i32 0, i32 6
  %18 = load i32, ptr %17, align 4, !tbaa !94
  %19 = add i32 %18, %13
  store i32 %19, ptr %17, align 4, !tbaa !94
  %20 = load ptr, ptr %4, align 8, !tbaa !35
  %21 = getelementptr inbounds nuw %struct.lhuff_entropy_decoder, ptr %20, i32 0, i32 1
  %22 = getelementptr inbounds nuw %struct.bitread_perm_state, ptr %21, i32 0, i32 1
  store i32 0, ptr %22, align 8, !tbaa !67
  %23 = load ptr, ptr %3, align 8, !tbaa !3
  %24 = getelementptr inbounds nuw %struct.jpeg_decompress_struct, ptr %23, i32 0, i32 82
  %25 = load ptr, ptr %24, align 8, !tbaa !93
  %26 = getelementptr inbounds nuw %struct.jpeg_marker_reader, ptr %25, i32 0, i32 2
  %27 = load ptr, ptr %26, align 8, !tbaa !96
  %28 = load ptr, ptr %3, align 8, !tbaa !3
  %29 = call i32 %27(ptr noundef %28)
  %30 = icmp ne i32 %29, 0
  br i1 %30, label %32, label %31

31:                                               ; preds = %1
  store i32 0, ptr %2, align 4
  store i32 1, ptr %5, align 4
  br label %42

32:                                               ; preds = %1
  %33 = load ptr, ptr %3, align 8, !tbaa !3
  %34 = getelementptr inbounds nuw %struct.jpeg_decompress_struct, ptr %33, i32 0, i32 76
  %35 = load i32, ptr %34, align 4, !tbaa !97
  %36 = icmp eq i32 %35, 0
  br i1 %36, label %37, label %41

37:                                               ; preds = %32
  %38 = load ptr, ptr %4, align 8, !tbaa !35
  %39 = getelementptr inbounds nuw %struct.lhuff_entropy_decoder, ptr %38, i32 0, i32 0
  %40 = getelementptr inbounds nuw %struct.jpeg_entropy_decoder, ptr %39, i32 0, i32 4
  store i32 0, ptr %40, align 8, !tbaa !69
  br label %41

41:                                               ; preds = %37, %32
  store i32 1, ptr %2, align 4
  store i32 1, ptr %5, align 4
  br label %42

42:                                               ; preds = %41, %31
  call void @llvm.lifetime.end.p0(i64 8, ptr %4) #3
  %43 = load i32, ptr %2, align 4
  ret i32 %43
}