; Function Attrs: nounwind uwtable
define internal range(i32 0, 2) i32 @process_restart(ptr noundef %0) #0 {
  %2 = getelementptr inbounds nuw i8, ptr %0, i64 592
  %3 = load ptr, ptr %2, align 8, !tbaa !33
  %4 = getelementptr inbounds nuw i8, ptr %3, i64 48
  %5 = load i32, ptr %4, align 8, !tbaa !66
  %6 = sdiv i32 %5, 8
  %7 = getelementptr inbounds nuw i8, ptr %0, i64 584
  %8 = load ptr, ptr %7, align 8, !tbaa !90
  %9 = getelementptr inbounds nuw i8, ptr %8, i64 36
  %10 = load i32, ptr %9, align 4, !tbaa !91
  %11 = add i32 %10, %6
  store i32 %11, ptr %9, align 4, !tbaa !91
  store i32 0, ptr %4, align 8, !tbaa !66
  %12 = getelementptr inbounds nuw i8, ptr %8, i64 16
  %13 = load ptr, ptr %12, align 8, !tbaa !93
  %14 = tail call i32 %13(ptr noundef %0) #4
  %.not = icmp eq i32 %14, 0
  br i1 %.not, label %21, label %15

15:                                               ; preds = %1
  %16 = getelementptr inbounds nuw i8, ptr %0, i64 540
  %17 = load i32, ptr %16, align 4, !tbaa !94
  %18 = icmp eq i32 %17, 0
  br i1 %18, label %19, label %21

19:                                               ; preds = %15
  %20 = getelementptr inbounds nuw i8, ptr %3, i64 32
  store i32 0, ptr %20, align 8, !tbaa !68
  br label %21

21:                                               ; preds = %15, %19, %1
  %.0 = phi i32 [ 0, %1 ], [ 1, %19 ], [ 1, %15 ]
  ret i32 %.0
}